target datalayout = "e-m:e-p270:32:32-p271:32:32-p272:64:64-i64:64-i128:128-f80:128-n8:16:32:64-S128"
target triple = "x86_64-pc-linux-gnu"

%struct.sentinelRedisInstance = type { i32, ptr, ptr, i64, ptr, ptr, i64, i64, i64, i64, i64, i64, i64, i64, i64, ptr, i32, i64, i64, ptr, ptr, i32, i32, ptr, ptr, i64, i32, i32, i64, ptr, ptr, i32, i32, i64, ptr, i64, i64, i32, i64, i64, i64, i64, ptr, ptr, ptr, ptr }

@sentinel_publish_period = internal global i64 2000, align 8

; Function Attrs: nounwind uwtable
define dso_local void @sentinelForceHelloUpdateDictOfRedisInstances(ptr noundef %0) #0 {
  %2 = alloca ptr, align 8
  %3 = alloca ptr, align 8
  %4 = alloca ptr, align 8
  %5 = alloca ptr, align 8
  store ptr %0, ptr %2, align 8, !tbaa !5
  call void @llvm.lifetime.start.p0(i64 8, ptr %3) #16
  call void @llvm.lifetime.start.p0(i64 8, ptr %4) #16
  %6 = load ptr, ptr %2, align 8, !tbaa !5
  %7 = call ptr @dictGetSafeIterator(ptr noundef %6)
  store ptr %7, ptr %3, align 8, !tbaa !87
  br label %8

8:                                                ; preds = %28, %1
  %9 = load ptr, ptr %3, align 8, !tbaa !87
  %10 = call ptr @dictNext(ptr noundef %9)
  store ptr %10, ptr %4, align 8, !tbaa !89
  %11 = icmp ne ptr %10, null
  br i1 %11, label %12, label %29

12:                                               ; preds = %8
  call void @llvm.lifetime.start.p0(i64 8, ptr %5) #16
  %13 = load ptr, ptr %4, align 8, !tbaa !89
  %14 = call ptr @dictGetVal(ptr noundef %13)
  store ptr %14, ptr %5, align 8, !tbaa !11
  %15 = load ptr, ptr %5, align 8, !tbaa !11
  %16 = getelementptr inbounds nuw %struct.sentinelRedisInstance, ptr %15, i32 0, i32 6
  %17 = load i64, ptr %16, align 8, !tbaa !175
  %18 = load i64, ptr @sentinel_publish_period, align 8, !tbaa !119
  %19 = add nsw i64 %18, 1
  %20 = icmp sge i64 %17, %19
  br i1 %20, label %21, label %28

21:                                               ; preds = %12
  %22 = load i64, ptr @sentinel_publish_period, align 8, !tbaa !119
  %23 = add nsw i64 %22, 1
  %24 = load ptr, ptr %5, align 8, !tbaa !11
  %25 = getelementptr inbounds nuw %struct.sentinelRedisInstance, ptr %24, i32 0, i32 6
  %26 = load i64, ptr %25, align 8, !tbaa !175
  %27 = sub nsw i64 %26, %23
  store i64 %27, ptr %25, align 8, !tbaa !175
  br label %28

28:                                               ; preds = %21, %12
  call void @llvm.lifetime.end.p0(i64 8, ptr %5) #16
  br label %8, !llvm.loop !278

29:                                               ; preds = %8
  %30 = load ptr, ptr %3, align 8, !tbaa !87
  call void @dictReleaseIterator(ptr noundef %30)
  call void @llvm.lifetime.end.p0(i64 8, ptr %4) #16
  call void @llvm.lifetime.end.p0(i64 8, ptr %3) #16
  ret void
}

; Function Attrs: nounwind uwtable
define dso_local i32 @sentinelForceHelloUpdateForMaster(ptr noundef %0) #0 {
  %2 = alloca i32, align 4
  %3 = alloca ptr, align 8
  store ptr %0, ptr %3, align 8, !tbaa !11
  %4 = load ptr, ptr %3, align 8, !tbaa !11
  %5 = getelementptr inbounds nuw %struct.sentinelRedisInstance, ptr %4, i32 0, i32 0
  %6 = load i32, ptr %5, align 8, !tbaa !34
  %7 = and i32 %6, 1
  %8 = icmp ne i32 %7, 0
  br i1 %8, label %10, label %9

9:                                                ; preds = %1
  store i32 -1, ptr %2, align 4
  br label %31

10:                                               ; preds = %1
  %11 = load ptr, ptr %3, align 8, !tbaa !11
  %12 = getelementptr inbounds nuw %struct.sentinelRedisInstance, ptr %11, i32 0, i32 6
  %13 = load i64, ptr %12, align 8, !tbaa !175
  %14 = load i64, ptr @sentinel_publish_period, align 8, !tbaa !119
  %15 = add nsw i64 %14, 1
  %16 = icmp sge i64 %13, %15
  br i1 %16, label %17, label %24

17:                                               ; preds = %10
  %18 = load i64, ptr @sentinel_publish_period, align 8, !tbaa !119
  %19 = add nsw i64 %18, 1
  %20 = load ptr, ptr %3, align 8, !tbaa !11
  %21 = getelementptr inbounds nuw %struct.sentinelRedisInstance, ptr %20, i32 0, i32 6
  %22 = load i64, ptr %21, align 8, !tbaa !175
  %23 = sub nsw i64 %22, %19
  store i64 %23, ptr %21, align 8, !tbaa !175
  br label %24

24:                                               ; preds = %17, %10
  %25 = load ptr, ptr %3, align 8, !tbaa !11
  %26 = getelementptr inbounds nuw %struct.sentinelRedisInstance, ptr %25, i32 0, i32 19
  %27 = load ptr, ptr %26, align 8, !tbaa !13
  call void @sentinelForceHelloUpdateDictOfRedisInstances(ptr noundef %27)
  %28 = load ptr, ptr %3, align 8, !tbaa !11
  %29 = getelementptr inbounds nuw %struct.sentinelRedisInstance, ptr %28, i32 0, i32 20
  %30 = load ptr, ptr %29, align 8, !tbaa !21
  call void @sentinelForceHelloUpdateDictOfRedisInstances(ptr noundef %30)
  store i32 0, ptr %2, align 4
  br label %31

31:                                               ; preds = %24, %9
  %32 = load i32, ptr %2, align 4
  ret i32 %32
}