; Function Attrs: nounwind uwtable
define dso_local range(i32 -1, 1) i32 @sentinelForceHelloUpdateForMaster(ptr noundef captures(none) %0) local_unnamed_addr #0 {
  %2 = load i32, ptr %0, align 8, !tbaa !34
  %3 = and i32 %2, 1
  %.not = icmp eq i32 %3, 0
  br i1 %.not, label %37, label %4

4:                                                ; preds = %1
  %5 = getelementptr inbounds nuw i8, ptr %0, i64 48
  %6 = load i64, ptr %5, align 8, !tbaa !151
  %7 = load i64, ptr @sentinel_publish_period, align 8, !tbaa !107
  %.not7.not = icmp sgt i64 %6, %7
  br i1 %.not7.not, label %8, label %10

8:                                                ; preds = %4
  %.neg = xor i64 %7, -1
  %9 = add i64 %6, %.neg
  store i64 %9, ptr %5, align 8, !tbaa !151
  br label %10

10:                                               ; preds = %8, %4
  %11 = getelementptr inbounds nuw i8, ptr %0, i64 152
  %12 = load ptr, ptr %11, align 8, !tbaa !5
  %13 = tail call ptr @dictGetSafeIterator(ptr noundef %12) #30
  %14 = tail call ptr @dictNext(ptr noundef %13) #30
  %.not9.i = icmp eq ptr %14, null
  br i1 %.not9.i, label %sentinelForceHelloUpdateDictOfRedisInstances.exit, label %.lr.ph.i

.lr.ph.i:                                         ; preds = %10, %22
  %15 = phi ptr [ %23, %22 ], [ %14, %10 ]
  %16 = tail call ptr @dictGetVal(ptr noundef nonnull %15) #30
  %17 = getelementptr inbounds nuw i8, ptr %16, i64 48
  %18 = load i64, ptr %17, align 8, !tbaa !151
  %19 = load i64, ptr @sentinel_publish_period, align 8, !tbaa !107
  %.not8.not.i = icmp sgt i64 %18, %19
  br i1 %.not8.not.i, label %20, label %22

20:                                               ; preds = %.lr.ph.i
  %.neg.i = xor i64 %19, -1
  %21 = add i64 %18, %.neg.i
  store i64 %21, ptr %17, align 8, !tbaa !151
  br label %22

22:                                               ; preds = %20, %.lr.ph.i
  %23 = tail call ptr @dictNext(ptr noundef %13) #30
  %.not.i = icmp eq ptr %23, null
  br i1 %.not.i, label %sentinelForceHelloUpdateDictOfRedisInstances.exit, label %.lr.ph.i, !llvm.loop !244

sentinelForceHelloUpdateDictOfRedisInstances.exit: ; preds = %22, %10
  tail call void @dictReleaseIterator(ptr noundef %13) #30
  %24 = getelementptr inbounds nuw i8, ptr %0, i64 160
  %25 = load ptr, ptr %24, align 8, !tbaa !18
  %26 = tail call ptr @dictGetSafeIterator(ptr noundef %25) #30
  %27 = tail call ptr @dictNext(ptr noundef %26) #30
  %.not9.i8 = icmp eq ptr %27, null
  br i1 %.not9.i8, label %sentinelForceHelloUpdateDictOfRedisInstances.exit13, label %.lr.ph.i9

.lr.ph.i9:                                        ; preds = %sentinelForceHelloUpdateDictOfRedisInstances.exit, %35
  %28 = phi ptr [ %36, %35 ], [ %27, %sentinelForceHelloUpdateDictOfRedisInstances.exit ]
  %29 = tail call ptr @dictGetVal(ptr noundef nonnull %28) #30
  %30 = getelementptr inbounds nuw i8, ptr %29, i64 48
  %31 = load i64, ptr %30, align 8, !tbaa !151
  %32 = load i64, ptr @sentinel_publish_period, align 8, !tbaa !107
  %.not8.not.i10 = icmp sgt i64 %31, %32
  br i1 %.not8.not.i10, label %33, label %35

33:                                               ; preds = %.lr.ph.i9
  %.neg.i12 = xor i64 %32, -1
  %34 = add i64 %31, %.neg.i12
  store i64 %34, ptr %30, align 8, !tbaa !151
  br label %35

35:                                               ; preds = %33, %.lr.ph.i9
  %36 = tail call ptr @dictNext(ptr noundef %26) #30
  %.not.i11 = icmp eq ptr %36, null
  br i1 %.not.i11, label %sentinelForceHelloUpdateDictOfRedisInstances.exit13, label %.lr.ph.i9, !llvm.loop !244

sentinelForceHelloUpdateDictOfRedisInstances.exit13: ; preds = %35, %sentinelForceHelloUpdateDictOfRedisInstances.exit
  tail call void @dictReleaseIterator(ptr noundef %26) #30
  br label %37

37:                                               ; preds = %1, %sentinelForceHelloUpdateDictOfRedisInstances.exit13
  %.0 = phi i32 [ 0, %sentinelForceHelloUpdateDictOfRedisInstances.exit13 ], [ -1, %1 ]
  ret i32 %.0
}